target datalayout = "e-m:e-p270:32:32-p271:32:32-p272:64:64-i64:64-i128:128-f80:128-n8:16:32:64-S128"
target triple = "x86_64-pc-linux-gnu"

%class.btMultiBodyConstraint = type { ptr, ptr, ptr, i32, i32, i32, i32, i32, i32, i32, i8, i32, float, %class.btAlignedObjectArray }
%class.btAlignedObjectArray = type <{ [4 x i8], i32, i32, [4 x i8], ptr, i8, [7 x i8] }>
%class.btMultiBody = type { ptr, ptr, ptr, %class.btVector3, %class.btVector3, %class.btQuaternion, %class.btQuaternion, float, %class.btVector3, %class.btVector3, %class.btVector3, %class.btVector3, %class.btVector3, [4 x i8], %class.btAlignedObjectArray.0, %class.btAlignedObjectArray, %class.btAlignedObjectArray, %class.btAlignedObjectArray, %class.btAlignedObjectArray.2, %class.btAlignedObjectArray.4, %class.btMatrix3x3, %class.btMatrix3x3, %class.btMatrix3x3, %class.btMatrix3x3, i8, i8, i8, i8, i8, float, float, float, ptr, i32, i32, i32, float, float, i8, float, float, i8, i8, i32, i32, i8, i8, i8, i8 }
%class.btQuaternion = type { %class.btQuadWord }
%class.btQuadWord = type { [4 x float] }
%class.btVector3 = type { [4 x float] }
%class.btAlignedObjectArray.0 = type <{ [4 x i8], i32, i32, [4 x i8], ptr, i8, [7 x i8] }>
%class.btAlignedObjectArray.2 = type <{ [4 x i8], i32, i32, [4 x i8], ptr, i8, [7 x i8] }>
%class.btAlignedObjectArray.4 = type <{ [4 x i8], i32, i32, [4 x i8], ptr, i8, [7 x i8] }>
%class.btMatrix3x3 = type { [3 x %class.btVector3] }

; Function Attrs: mustprogress nounwind uwtable
define linkonce_odr dso_local noundef i32 @_ZNK11btMultiBody10getNumDofsEv(ptr noundef nonnull align 8 dereferenceable(640) %0) #1 comdat align 2 {
  %2 = alloca ptr, align 8
  store ptr %0, ptr %2, align 8, !tbaa !14
  %3 = load ptr, ptr %2, align 8
  %4 = getelementptr inbounds nuw %class.btMultiBody, ptr %3, i32 0, i32 43
  %5 = load i32, ptr %4, align 4, !tbaa !40
  ret i32 %5
}

; Function Attrs: mustprogress uwtable
define dso_local void @_ZN21btMultiBodyConstraint19updateJacobianSizesEv(ptr noundef nonnull align 8 dereferenceable(96) %0) #2 align 2 {
  %2 = alloca ptr, align 8
  store ptr %0, ptr %2, align 8, !tbaa !12
  %3 = load ptr, ptr %2, align 8
  %4 = getelementptr inbounds nuw %class.btMultiBodyConstraint, ptr %3, i32 0, i32 1
  %5 = load ptr, ptr %4, align 8, !tbaa !20
  %6 = icmp ne ptr %5, null
  br i1 %6, label %7, label %13

7:                                                ; preds = %1
  %8 = getelementptr inbounds nuw %class.btMultiBodyConstraint, ptr %3, i32 0, i32 1
  %9 = load ptr, ptr %8, align 8, !tbaa !20
  %10 = call noundef i32 @_ZNK11btMultiBody10getNumDofsEv(ptr noundef nonnull align 8 dereferenceable(640) %9)
  %11 = add nsw i32 6, %10
  %12 = getelementptr inbounds nuw %class.btMultiBodyConstraint, ptr %3, i32 0, i32 7
  store i32 %11, ptr %12, align 8, !tbaa !31
  br label %13

13:                                               ; preds = %7, %1
  %14 = getelementptr inbounds nuw %class.btMultiBodyConstraint, ptr %3, i32 0, i32 2
  %15 = load ptr, ptr %14, align 8, !tbaa !26
  %16 = icmp ne ptr %15, null
  br i1 %16, label %17, label %26

17:                                               ; preds = %13
  %18 = getelementptr inbounds nuw %class.btMultiBodyConstraint, ptr %3, i32 0, i32 7
  %19 = load i32, ptr %18, align 8, !tbaa !31
  %20 = add nsw i32 %19, 6
  %21 = getelementptr inbounds nuw %class.btMultiBodyConstraint, ptr %3, i32 0, i32 2
  %22 = load ptr, ptr %21, align 8, !tbaa !26
  %23 = call noundef i32 @_ZNK11btMultiBody10getNumDofsEv(ptr noundef nonnull align 8 dereferenceable(640) %22)
  %24 = add nsw i32 %20, %23
  %25 = getelementptr inbounds nuw %class.btMultiBodyConstraint, ptr %3, i32 0, i32 8
  store i32 %24, ptr %25, align 4, !tbaa !32
  br label %30

26:                                               ; preds = %13
  %27 = getelementptr inbounds nuw %class.btMultiBodyConstraint, ptr %3, i32 0, i32 7
  %28 = load i32, ptr %27, align 8, !tbaa !31
  %29 = getelementptr inbounds nuw %class.btMultiBodyConstraint, ptr %3, i32 0, i32 8
  store i32 %28, ptr %29, align 4, !tbaa !32
  br label %30

30:                                               ; preds = %26, %17
  ret void
}