; Function Attrs: mustprogress nofree norecurse nosync nounwind willreturn memory(read, argmem: readwrite, inaccessiblemem: none) uwtable
define dso_local void @_ZN21btMultiBodyConstraint19updateJacobianSizesEv(ptr noundef nonnull align 8 captures(none) dereferenceable(96) initializes((44, 48)) %0) local_unnamed_addr #1 align 2 {
  %2 = getelementptr inbounds nuw i8, ptr %0, i64 8
  %3 = load ptr, ptr %2, align 8, !tbaa !7
  %.not = icmp eq ptr %3, null
  br i1 %.not, label %9, label %4

4:                                                ; preds = %1
  %5 = getelementptr inbounds nuw i8, ptr %3, i64 628
  %6 = load i32, ptr %5, align 4, !tbaa !32
  %7 = add nsw i32 %6, 6
  %8 = getelementptr inbounds nuw i8, ptr %0, i64 40
  store i32 %7, ptr %8, align 8, !tbaa !23
  br label %9

9:                                                ; preds = %4, %1
  %10 = getelementptr inbounds nuw i8, ptr %0, i64 16
  %11 = load ptr, ptr %10, align 8, !tbaa !18
  %.not2 = icmp eq ptr %11, null
  %12 = getelementptr inbounds nuw i8, ptr %0, i64 40
  %13 = load i32, ptr %12, align 8, !tbaa !23
  br i1 %.not2, label %19, label %14

14:                                               ; preds = %9
  %15 = add nsw i32 %13, 6
  %16 = getelementptr inbounds nuw i8, ptr %11, i64 628
  %17 = load i32, ptr %16, align 4, !tbaa !32
  %18 = add nsw i32 %15, %17
  br label %19

19:                                               ; preds = %9, %14
  %.sink = phi i32 [ %18, %14 ], [ %13, %9 ]
  %20 = getelementptr inbounds nuw i8, ptr %0, i64 44
  store i32 %.sink, ptr %20, align 4, !tbaa !24
  ret void
}